; Function Attrs: mustprogress uwtable
define noundef i32 @_ZNK6casadi9LinsolLdl8init_memEPv(ptr noundef nonnull align 8 dereferenceable(218) %0, ptr noundef %1) unnamed_addr #4 align 2 personality ptr @__gxx_personality_v0 {
  %3 = tail call noundef i32 @_ZNK6casadi14LinsolInternal8init_memEPv(ptr noundef nonnull align 8 dereferenceable(184) %0, ptr noundef %1)
  %.not = icmp eq i32 %3, 0
  br i1 %.not, label %4, label %_ZNSt6vectorIdSaIdEE6resizeEm.exit11

4:                                                ; preds = %2
  %5 = getelementptr inbounds i8, ptr %0, i64 176
  %6 = tail call noundef i64 @_ZNK6casadi8Sparsity5size1Ev(ptr noundef nonnull align 8 dereferenceable(8) %5)
  %7 = getelementptr inbounds i8, ptr %1, i64 88
  %8 = getelementptr inbounds i8, ptr %1, i64 96
  %9 = load ptr, ptr %8, align 8
  %10 = load ptr, ptr %7, align 8
  %11 = ptrtoint ptr %9 to i64
  %12 = ptrtoint ptr %10 to i64
  %13 = sub i64 %11, %12
  %14 = ashr exact i64 %13, 3
  %15 = icmp ult i64 %14, %6
  br i1 %15, label %16, label %18

16:                                               ; preds = %4
  %17 = sub i64 %6, %14
  tail call void @_ZNSt6vectorIdSaIdEE17_M_default_appendEm(ptr noundef nonnull align 8 dereferenceable(24) %7, i64 noundef %17)
  br label %_ZNSt6vectorIdSaIdEE6resizeEm.exit

18:                                               ; preds = %4
  %19 = icmp ugt i64 %14, %6
  br i1 %19, label %20, label %_ZNSt6vectorIdSaIdEE6resizeEm.exit

20:                                               ; preds = %18
  %21 = getelementptr inbounds double, ptr %10, i64 %6
  %.not.i.i = icmp eq ptr %9, %21
  br i1 %.not.i.i, label %_ZNSt6vectorIdSaIdEE6resizeEm.exit, label %22

22:                                               ; preds = %20
  store ptr %21, ptr %8, align 8
  br label %_ZNSt6vectorIdSaIdEE6resizeEm.exit

_ZNSt6vectorIdSaIdEE6resizeEm.exit:               ; preds = %16, %18, %20, %22
  %23 = getelementptr inbounds i8, ptr %1, i64 64
  %24 = getelementptr inbounds i8, ptr %0, i64 208
  %25 = tail call noundef i64 @_ZNK6casadi8Sparsity3nnzEv(ptr noundef nonnull align 8 dereferenceable(8) %24)
  %26 = getelementptr inbounds i8, ptr %1, i64 72
  %27 = load ptr, ptr %26, align 8
  %28 = load ptr, ptr %23, align 8
  %29 = ptrtoint ptr %27 to i64
  %30 = ptrtoint ptr %28 to i64
  %31 = sub i64 %29, %30
  %32 = ashr exact i64 %31, 3
  %33 = icmp ult i64 %32, %25
  br i1 %33, label %34, label %36

34:                                               ; preds = %_ZNSt6vectorIdSaIdEE6resizeEm.exit
  %35 = sub i64 %25, %32
  tail call void @_ZNSt6vectorIdSaIdEE17_M_default_appendEm(ptr noundef nonnull align 8 dereferenceable(24) %23, i64 noundef %35)
  br label %_ZNSt6vectorIdSaIdEE6resizeEm.exit9

36:                                               ; preds = %_ZNSt6vectorIdSaIdEE6resizeEm.exit
  %37 = icmp ugt i64 %32, %25
  br i1 %37, label %38, label %_ZNSt6vectorIdSaIdEE6resizeEm.exit9

38:                                               ; preds = %36
  %39 = getelementptr inbounds double, ptr %28, i64 %25
  %.not.i.i8 = icmp eq ptr %27, %39
  br i1 %.not.i.i8, label %_ZNSt6vectorIdSaIdEE6resizeEm.exit9, label %40

40:                                               ; preds = %38
  store ptr %39, ptr %26, align 8
  br label %_ZNSt6vectorIdSaIdEE6resizeEm.exit9

_ZNSt6vectorIdSaIdEE6resizeEm.exit9:              ; preds = %34, %36, %38, %40
  %41 = getelementptr inbounds i8, ptr %1, i64 112
  %42 = getelementptr inbounds i8, ptr %1, i64 120
  %43 = load ptr, ptr %42, align 8
  %44 = load ptr, ptr %41, align 8
  %45 = ptrtoint ptr %43 to i64
  %46 = ptrtoint ptr %44 to i64
  %47 = sub i64 %45, %46
  %48 = ashr exact i64 %47, 3
  %49 = icmp ult i64 %48, %6
  br i1 %49, label %50, label %52

50:                                               ; preds = %_ZNSt6vectorIdSaIdEE6resizeEm.exit9
  %51 = sub i64 %6, %48
  tail call void @_ZNSt6vectorIdSaIdEE17_M_default_appendEm(ptr noundef nonnull align 8 dereferenceable(24) %41, i64 noundef %51)
  br label %_ZNSt6vectorIdSaIdEE6resizeEm.exit11

52:                                               ; preds = %_ZNSt6vectorIdSaIdEE6resizeEm.exit9
  %53 = icmp ugt i64 %48, %6
  br i1 %53, label %54, label %_ZNSt6vectorIdSaIdEE6resizeEm.exit11

54:                                               ; preds = %52
  %55 = getelementptr inbounds double, ptr %44, i64 %6
  %.not.i.i10 = icmp eq ptr %43, %55
  br i1 %.not.i.i10, label %_ZNSt6vectorIdSaIdEE6resizeEm.exit11, label %56

56:                                               ; preds = %54
  store ptr %55, ptr %42, align 8
  br label %_ZNSt6vectorIdSaIdEE6resizeEm.exit11

_ZNSt6vectorIdSaIdEE6resizeEm.exit11:             ; preds = %56, %54, %52, %50, %2
  %.0 = phi i32 [ 1, %2 ], [ 0, %50 ], [ 0, %52 ], [ 0, %54 ], [ 0, %56 ]
  ret i32 %.0
}